target datalayout = "e-m:e-p270:32:32-p271:32:32-p272:64:64-i64:64-i128:128-f80:128-n8:16:32:64-S128"
target triple = "x86_64-pc-linux-gnu"

%class.ResolvedFieldEntry = type <{ ptr, i32, i16, i16, i8, i8, i8, i8, [4 x i8] }>
%class.Rewriter = type { ptr, %class.constantPoolHandle, ptr, %class.GrowableArray, %class.GrowableArray, %class.GrowableArray, %class.GrowableArray, %class.GrowableArray, i32, i32, i32, i32, %class.GrowableArray.0, %class.GrowableArray.3, %class.GrowableArray.6 }
%class.constantPoolHandle = type { ptr, ptr }
%class.GrowableArray = type { %class.GrowableArrayWithAllocator, %class.GrowableArrayMetadata }
%class.GrowableArrayWithAllocator = type { %class.GrowableArrayView }
%class.GrowableArrayView = type { %class.GrowableArrayBase, ptr }
%class.GrowableArrayBase = type { i32, i32 }
%class.GrowableArrayMetadata = type { i64 }
%class.GrowableArray.0 = type { %class.GrowableArrayWithAllocator.1, %class.GrowableArrayMetadata }
%class.GrowableArrayWithAllocator.1 = type { %class.GrowableArrayView.2 }
%class.GrowableArrayView.2 = type { %class.GrowableArrayBase, ptr }
%class.GrowableArray.3 = type { %class.GrowableArrayWithAllocator.4, %class.GrowableArrayMetadata }
%class.GrowableArrayWithAllocator.4 = type { %class.GrowableArrayView.5 }
%class.GrowableArrayView.5 = type { %class.GrowableArrayBase, ptr }
%class.GrowableArray.6 = type { %class.GrowableArrayWithAllocator.7, %class.GrowableArrayMetadata }
%class.GrowableArrayWithAllocator.7 = type { %class.GrowableArrayView.8 }
%class.GrowableArrayView.8 = type { %class.GrowableArrayBase, ptr }
%struct.ByteswapImpl = type { i8 }

; Function Attrs: mustprogress nounwind uwtable
define internal noundef i64 @_ZL14alignment_maskImTnNSt9enable_ifIXcvbsr3std11is_integralIT_EE5valueEiE4typeELi0EES1_S1_(i64 noundef %0) #1 {
  %2 = alloca i64, align 8
  store i64 %0, ptr %2, align 8
  %3 = load i64, ptr %2, align 8
  %4 = sub i64 %3, 1
  ret i64 %4
}

; Function Attrs: mustprogress nounwind uwtable
define linkonce_odr hidden noundef zeroext i1 @_Z10is_alignedImmTnNSt9enable_ifIXcvbsr3std11is_integralIT_EE5valueEiE4typeELi0EEbS1_T0_(i64 noundef %0, i64 noundef %1) #1 comdat {
  %3 = alloca i64, align 8
  %4 = alloca i64, align 8
  store i64 %0, ptr %3, align 8
  store i64 %1, ptr %4, align 8
  %5 = load i64, ptr %3, align 8
  %6 = load i64, ptr %4, align 8
  %7 = call noundef i64 @_ZL14alignment_maskImTnNSt9enable_ifIXcvbsr3std11is_integralIT_EE5valueEiE4typeELi0EES1_S1_(i64 noundef %6)
  %8 = and i64 %5, %7
  %9 = icmp eq i64 %8, 0
  ret i1 %9
}

; Function Attrs: mustprogress nounwind uwtable
define linkonce_odr hidden noundef zeroext i16 @_ZNK12ByteswapImplItLm2EEclEt(ptr noundef nonnull align 1 dereferenceable(1) %0, i16 noundef zeroext %1) #1 comdat align 2 {
  %3 = alloca ptr, align 8
  %4 = alloca i16, align 2
  store ptr %0, ptr %3, align 8
  store i16 %1, ptr %4, align 2
  %5 = load i16, ptr %4, align 2
  %6 = call i16 @llvm.bswap.i16(i16 %5)
  ret i16 %6
}

; Function Attrs: mustprogress nounwind uwtable
define linkonce_odr hidden noundef zeroext i1 @_Z10is_alignedIKvmEbPT_T0_(ptr noundef %0, i64 noundef %1) #1 comdat {
  %3 = alloca ptr, align 8
  %4 = alloca i64, align 8
  store ptr %0, ptr %3, align 8
  store i64 %1, ptr %4, align 8
  %5 = load ptr, ptr %3, align 8
  %6 = ptrtoint ptr %5 to i64
  %7 = load i64, ptr %4, align 8
  %8 = call noundef zeroext i1 @_Z10is_alignedImmTnNSt9enable_ifIXcvbsr3std11is_integralIT_EE5valueEiE4typeELi0EEbS1_T0_(i64 noundef %6, i64 noundef %7)
  ret i1 %8
}

; Function Attrs: mustprogress nounwind uwtable
define linkonce_odr hidden noundef zeroext i1 @_Z10is_alignedIvmEbPT_T0_(ptr noundef %0, i64 noundef %1) #1 comdat {
  %3 = alloca ptr, align 8
  %4 = alloca i64, align 8
  store ptr %0, ptr %3, align 8
  store i64 %1, ptr %4, align 8
  %5 = load ptr, ptr %3, align 8
  %6 = ptrtoint ptr %5 to i64
  %7 = load i64, ptr %4, align 8
  %8 = call noundef zeroext i1 @_Z10is_alignedImmTnNSt9enable_ifIXcvbsr3std11is_integralIT_EE5valueEiE4typeELi0EEbS1_T0_(i64 noundef %6, i64 noundef %7)
  ret i1 %8
}

; Function Attrs: mustprogress nounwind uwtable
define linkonce_odr hidden noundef zeroext i16 @_Z8byteswapItTnNSt9enable_ifIXcvbsr3std11is_integralIT_EE5valueEiE4typeELi0EES1_S1_(i16 noundef zeroext %0) #1 comdat {
  %2 = alloca i16, align 2
  %3 = alloca %struct.ByteswapImpl, align 1
  store i16 %0, ptr %2, align 2
  %4 = load i16, ptr %2, align 2
  %5 = call noundef zeroext i16 @_ZNK12ByteswapImplItLm2EEclEt(ptr noundef nonnull align 1 dereferenceable(1) %3, i16 noundef zeroext %4)
  ret i16 %5
}

; Function Attrs: mustprogress nounwind uwtable
define linkonce_odr hidden noundef zeroext i1 @_ZN6Endian31is_Java_byte_ordering_differentEv() #1 comdat align 2 {
  ret i1 true
}

; Function Attrs: mustprogress nounwind uwtable
define linkonce_odr hidden void @_ZN5Bytes8put_JavaItEEvPhT_(ptr noundef %0, i16 noundef zeroext %1) #1 comdat align 2 {
  %3 = alloca ptr, align 8
  %4 = alloca i16, align 2
  store ptr %0, ptr %3, align 8
  store i16 %1, ptr %4, align 2
  %5 = call noundef zeroext i1 @_ZN6Endian31is_Java_byte_ordering_differentEv()
  br i1 %5, label %6, label %9

6:                                                ; preds = %2
  %7 = load i16, ptr %4, align 2
  %8 = call noundef zeroext i16 @_Z8byteswapItTnNSt9enable_ifIXcvbsr3std11is_integralIT_EE5valueEiE4typeELi0EES1_S1_(i16 noundef zeroext %7)
  store i16 %8, ptr %4, align 2
  br label %9

9:                                                ; preds = %6, %2
  %10 = load ptr, ptr %3, align 8
  %11 = load i16, ptr %4, align 2
  call void @_ZN5Bytes10put_nativeItEEvPvT_(ptr noundef %10, i16 noundef zeroext %11)
  ret void
}

; Function Attrs: mustprogress nounwind uwtable
define linkonce_odr hidden noundef zeroext i16 @_ZN5Bytes10get_nativeItEET_PKv(ptr noundef %0) #1 comdat align 2 {
  %2 = alloca ptr, align 8
  %3 = alloca i16, align 2
  store ptr %0, ptr %2, align 8
  %4 = load ptr, ptr %2, align 8
  %5 = call noundef zeroext i1 @_Z10is_alignedIKvmEbPT_T0_(ptr noundef %4, i64 noundef 2)
  br i1 %5, label %6, label %9

6:                                                ; preds = %1
  %7 = load ptr, ptr %2, align 8
  %8 = load i16, ptr %7, align 2
  store i16 %8, ptr %3, align 2
  br label %11

9:                                                ; preds = %1
  %10 = load ptr, ptr %2, align 8
  call void @llvm.memcpy.p0.p0.i64(ptr align 2 %3, ptr align 1 %10, i64 2, i1 false)
  br label %11

11:                                               ; preds = %9, %6
  %12 = load i16, ptr %3, align 2
  ret i16 %12
}

; Function Attrs: mustprogress nounwind uwtable
define linkonce_odr hidden void @_ZN5Bytes10put_nativeItEEvPvT_(ptr noundef %0, i16 noundef zeroext %1) #1 comdat align 2 {
  %3 = alloca ptr, align 8
  %4 = alloca i16, align 2
  store ptr %0, ptr %3, align 8
  store i16 %1, ptr %4, align 2
  %5 = load ptr, ptr %3, align 8
  %6 = call noundef zeroext i1 @_Z10is_alignedIvmEbPT_T0_(ptr noundef %5, i64 noundef 2)
  br i1 %6, label %7, label %10

7:                                                ; preds = %2
  %8 = load i16, ptr %4, align 2
  %9 = load ptr, ptr %3, align 8
  store i16 %8, ptr %9, align 2
  br label %12

10:                                               ; preds = %2
  %11 = load ptr, ptr %3, align 8
  call void @llvm.memcpy.p0.p0.i64(ptr align 1 %11, ptr align 2 %4, i64 2, i1 false)
  br label %12

12:                                               ; preds = %10, %7
  ret void
}

; Function Attrs: mustprogress nounwind uwtable
define linkonce_odr hidden noundef zeroext i16 @_ZN5Bytes8get_JavaItEET_Ph(ptr noundef %0) #1 comdat align 2 {
  %2 = alloca ptr, align 8
  %3 = alloca i16, align 2
  store ptr %0, ptr %2, align 8
  %4 = load ptr, ptr %2, align 8
  %5 = call noundef zeroext i16 @_ZN5Bytes10get_nativeItEET_PKv(ptr noundef %4)
  store i16 %5, ptr %3, align 2
  %6 = call noundef zeroext i1 @_ZN6Endian31is_Java_byte_ordering_differentEv()
  br i1 %6, label %7, label %10

7:                                                ; preds = %1
  %8 = load i16, ptr %3, align 2
  %9 = call noundef zeroext i16 @_Z8byteswapItTnNSt9enable_ifIXcvbsr3std11is_integralIT_EE5valueEiE4typeELi0EES1_S1_(i16 noundef zeroext %8)
  store i16 %9, ptr %3, align 2
  br label %10

10:                                               ; preds = %7, %1
  %11 = load i16, ptr %3, align 2
  ret i16 %11
}

; Function Attrs: mustprogress nounwind uwtable
define linkonce_odr hidden void @_ZN5Bytes11put_Java_u2EPht(ptr noundef %0, i16 noundef zeroext %1) #1 comdat align 2 {
  %3 = alloca ptr, align 8
  %4 = alloca i16, align 2
  store ptr %0, ptr %3, align 8
  store i16 %1, ptr %4, align 2
  %5 = load ptr, ptr %3, align 8
  %6 = load i16, ptr %4, align 2
  call void @_ZN5Bytes8put_JavaItEEvPhT_(ptr noundef %5, i16 noundef zeroext %6)
  ret void
}

; Function Attrs: mustprogress nounwind uwtable
define linkonce_odr hidden noundef zeroext i16 @_ZNK18ResolvedFieldEntry19constant_pool_indexEv(ptr noundef nonnull align 8 dereferenceable(20) %0) #1 comdat align 2 {
  %2 = alloca ptr, align 8
  store ptr %0, ptr %2, align 8
  %3 = load ptr, ptr %2, align 8
  %4 = getelementptr inbounds %class.ResolvedFieldEntry, ptr %3, i32 0, i32 3
  %5 = load i16, ptr %4, align 2
  ret i16 %5
}

; Function Attrs: mustprogress nounwind uwtable
define linkonce_odr hidden noundef nonnull align 8 dereferenceable(20) ptr @_ZN17GrowableArrayViewI18ResolvedFieldEntryE2atEi(ptr noundef nonnull align 8 dereferenceable(16) %0, i32 noundef %1) #1 comdat align 2 {
  %3 = alloca ptr, align 8
  %4 = alloca i32, align 4
  store ptr %0, ptr %3, align 8
  store i32 %1, ptr %4, align 4
  %5 = load ptr, ptr %3, align 8
  %6 = getelementptr inbounds %class.GrowableArrayView.5, ptr %5, i32 0, i32 1
  %7 = load ptr, ptr %6, align 8
  %8 = load i32, ptr %4, align 4
  %9 = sext i32 %8 to i64
  %10 = getelementptr inbounds %class.ResolvedFieldEntry, ptr %7, i64 %9
  ret ptr %10
}

; Function Attrs: mustprogress nounwind uwtable
define linkonce_odr hidden noundef zeroext i16 @_ZN5Bytes13get_native_u2EPh(ptr noundef %0) #1 comdat align 2 {
  %2 = alloca ptr, align 8
  store ptr %0, ptr %2, align 8
  %3 = load ptr, ptr %2, align 8
  %4 = call noundef zeroext i16 @_ZN5Bytes10get_nativeItEET_PKv(ptr noundef %3)
  ret i16 %4
}

; Function Attrs: mustprogress nounwind uwtable
define linkonce_odr hidden void @_ZN5Bytes13put_native_u2EPht(ptr noundef %0, i16 noundef zeroext %1) #1 comdat align 2 {
  %3 = alloca ptr, align 8
  %4 = alloca i16, align 2
  store ptr %0, ptr %3, align 8
  store i16 %1, ptr %4, align 2
  %5 = load ptr, ptr %3, align 8
  %6 = load i16, ptr %4, align 2
  call void @_ZN5Bytes10put_nativeItEEvPvT_(ptr noundef %5, i16 noundef zeroext %6)
  ret void
}

; Function Attrs: mustprogress nounwind uwtable
define linkonce_odr hidden noundef zeroext i16 @_Z12checked_castItiET_T0_(i32 noundef %0) #1 comdat {
  %2 = alloca i32, align 4
  %3 = alloca i16, align 2
  store i32 %0, ptr %2, align 4
  %4 = load i32, ptr %2, align 4
  %5 = trunc i32 %4 to i16
  store i16 %5, ptr %3, align 2
  %6 = load i16, ptr %3, align 2
  ret i16 %6
}

; Function Attrs: mustprogress nounwind uwtable
define linkonce_odr hidden noundef nonnull align 4 dereferenceable(4) ptr @_ZN17GrowableArrayViewIiE2atEi(ptr noundef nonnull align 8 dereferenceable(16) %0, i32 noundef %1) #1 comdat align 2 {
  %3 = alloca ptr, align 8
  %4 = alloca i32, align 4
  store ptr %0, ptr %3, align 8
  store i32 %1, ptr %4, align 4
  %5 = load ptr, ptr %3, align 8
  %6 = getelementptr inbounds %class.GrowableArrayView, ptr %5, i32 0, i32 1
  %7 = load ptr, ptr %6, align 8
  %8 = load i32, ptr %4, align 4
  %9 = sext i32 %8 to i64
  %10 = getelementptr inbounds i32, ptr %7, i64 %9
  ret ptr %10
}

; Function Attrs: mustprogress nounwind uwtable
define linkonce_odr hidden noundef zeroext i16 @_ZN5Bytes11get_Java_u2EPh(ptr noundef %0) #1 comdat align 2 {
  %2 = alloca ptr, align 8
  store ptr %0, ptr %2, align 8
  %3 = load ptr, ptr %2, align 8
  %4 = call noundef zeroext i16 @_ZN5Bytes8get_JavaItEET_Ph(ptr noundef %3)
  ret i16 %4
}

; Function Attrs: mustprogress nounwind uwtable
define hidden void @_ZN8Rewriter23rewrite_field_referenceEPhib(ptr noundef nonnull align 8 dereferenceable(240) %0, ptr noundef %1, i32 noundef %2, i1 noundef zeroext %3) #1 align 2 {
  %5 = alloca ptr, align 8
  %6 = alloca ptr, align 8
  %7 = alloca i32, align 4
  %8 = alloca i8, align 1
  %9 = alloca ptr, align 8
  %10 = alloca i32, align 4
  %11 = alloca i32, align 4
  %12 = alloca i32, align 4
  %13 = alloca i32, align 4
  store ptr %0, ptr %5, align 8
  store ptr %1, ptr %6, align 8
  store i32 %2, ptr %7, align 4
  %14 = zext i1 %3 to i8
  store i8 %14, ptr %8, align 1
  %15 = load ptr, ptr %5, align 8
  %16 = load ptr, ptr %6, align 8
  %17 = load i32, ptr %7, align 4
  %18 = sext i32 %17 to i64
  %19 = getelementptr inbounds i8, ptr %16, i64 %18
  store ptr %19, ptr %9, align 8
  %20 = load i8, ptr %8, align 1
  %21 = trunc i8 %20 to i1
  br i1 %21, label %33, label %22

22:                                               ; preds = %4
  %23 = load ptr, ptr %9, align 8
  %24 = call noundef zeroext i16 @_ZN5Bytes11get_Java_u2EPh(ptr noundef %23)
  %25 = zext i16 %24 to i32
  store i32 %25, ptr %10, align 4
  %26 = getelementptr inbounds %class.Rewriter, ptr %15, i32 0, i32 3
  %27 = load i32, ptr %10, align 4
  %28 = call noundef nonnull align 4 dereferenceable(4) ptr @_ZN17GrowableArrayViewIiE2atEi(ptr noundef nonnull align 8 dereferenceable(16) %26, i32 noundef %27)
  %29 = load i32, ptr %28, align 4
  store i32 %29, ptr %11, align 4
  %30 = load ptr, ptr %9, align 8
  %31 = load i32, ptr %11, align 4
  %32 = call noundef zeroext i16 @_Z12checked_castItiET_T0_(i32 noundef %31)
  call void @_ZN5Bytes13put_native_u2EPht(ptr noundef %30, i16 noundef zeroext %32)
  br label %45

33:                                               ; preds = %4
  %34 = load ptr, ptr %9, align 8
  %35 = call noundef zeroext i16 @_ZN5Bytes13get_native_u2EPh(ptr noundef %34)
  %36 = zext i16 %35 to i32
  store i32 %36, ptr %12, align 4
  %37 = getelementptr inbounds %class.Rewriter, ptr %15, i32 0, i32 13
  %38 = load i32, ptr %12, align 4
  %39 = call noundef nonnull align 8 dereferenceable(20) ptr @_ZN17GrowableArrayViewI18ResolvedFieldEntryE2atEi(ptr noundef nonnull align 8 dereferenceable(16) %37, i32 noundef %38)
  %40 = call noundef zeroext i16 @_ZNK18ResolvedFieldEntry19constant_pool_indexEv(ptr noundef nonnull align 8 dereferenceable(20) %39)
  %41 = zext i16 %40 to i32
  store i32 %41, ptr %13, align 4
  %42 = load ptr, ptr %9, align 8
  %43 = load i32, ptr %13, align 4
  %44 = call noundef zeroext i16 @_Z12checked_castItiET_T0_(i32 noundef %43)
  call void @_ZN5Bytes11put_Java_u2EPht(ptr noundef %42, i16 noundef zeroext %44)
  br label %45

45:                                               ; preds = %33, %22
  ret void
}