; Function Attrs: mustprogress nofree norecurse nosync nounwind willreturn memory(read, argmem: readwrite, inaccessiblemem: none) uwtable
define hidden void @_ZN8Rewriter23rewrite_field_referenceEPhib(ptr nocapture noundef nonnull readonly align 8 dereferenceable(240) %0, ptr noundef %1, i32 noundef %2, i1 noundef zeroext %3) local_unnamed_addr #4 align 2 {
  %5 = sext i32 %2 to i64
  %6 = getelementptr inbounds i8, ptr %1, i64 %5
  %.0.i.i = load i16, ptr %6, align 1
  br i1 %3, label %20, label %7

7:                                                ; preds = %4
  %8 = tail call noundef i16 @llvm.bswap.i16(i16 %.0.i.i)
  %9 = getelementptr inbounds i8, ptr %0, i64 40
  %10 = load ptr, ptr %9, align 8
  %11 = zext i16 %8 to i64
  %12 = getelementptr inbounds i32, ptr %10, i64 %11
  %13 = load i32, ptr %12, align 4
  %14 = trunc i32 %13 to i16
  %15 = ptrtoint ptr %6 to i64
  %16 = and i64 %15, 1
  %17 = icmp eq i64 %16, 0
  br i1 %17, label %18, label %19

18:                                               ; preds = %7
  store i16 %14, ptr %6, align 2
  br label %_ZN5Bytes13put_native_u2EPht.exit

19:                                               ; preds = %7
  store i16 %14, ptr %6, align 1
  br label %_ZN5Bytes13put_native_u2EPht.exit

20:                                               ; preds = %4
  %21 = getelementptr inbounds i8, ptr %0, i64 200
  %22 = load ptr, ptr %21, align 8
  %23 = zext i16 %.0.i.i to i64
  %24 = getelementptr inbounds %class.ResolvedFieldEntry, ptr %22, i64 %23, i32 3
  %25 = load i16, ptr %24, align 2
  %26 = tail call noundef i16 @llvm.bswap.i16(i16 %25)
  %27 = ptrtoint ptr %6 to i64
  %28 = and i64 %27, 1
  %29 = icmp eq i64 %28, 0
  br i1 %29, label %30, label %31

30:                                               ; preds = %20
  store i16 %26, ptr %6, align 2
  br label %_ZN5Bytes13put_native_u2EPht.exit

31:                                               ; preds = %20
  store i16 %26, ptr %6, align 1
  br label %_ZN5Bytes13put_native_u2EPht.exit

_ZN5Bytes13put_native_u2EPht.exit:                ; preds = %31, %30, %19, %18
  ret void
}